Certificate:
    Data:
        Version: 3 (0x2)
        Serial Number: 1 (0x1)
    Signature Algorithm: sha256WithRSAEncryption
        Issuer: C=CN, ST=GuangDong, L=ShenZhen, O=myorganization, OU=mygroup, CN=www.wax.com/emailAddress=sha362905392@163.com
        Validity
            Not Before: Aug 31 06:42:56 2022 GMT
            Not After : Aug  7 06:42:56 2122 GMT
        Subject: C=CN, ST=GuangDong, L=ShenZhen, O=wax, OU=itDepartment, CN=www.wax.com/emailAddress=sha362905392@163.com
        Subject Public Key Info:
            Public Key Algorithm: rsaEncryption
                Public-Key: (4096 bit)
                Modulus:
                    00:cf:f6:f2:e2:f4:2e:5e:97:e1:f3:ad:cf:f7:7d:
                    99:46:4d:b4:26:35:d9:8d:b8:e3:df:ab:ac:06:8d:
                    90:1c:be:56:b4:e8:ae:da:05:93:be:96:0d:7e:c2:
                    fa:21:be:e6:20:28:df:b4:cb:f3:04:43:59:00:cd:
                    be:66:24:c9:38:95:0b:bb:e4:de:10:7e:89:d9:9f:
                    70:90:ad:6b:44:69:51:fc:8d:03:69:d1:7b:1a:7a:
                    a9:27:52:45:04:53:eb:6c:f5:22:c2:a6:bf:ce:a3:
                    31:4f:ca:e0:2b:c6:4a:63:55:30:50:d5:2f:48:8f:
                    a5:e6:8f:43:ce:5c:47:85:c9:a4:7a:38:ef:4c:56:
                    e1:0d:12:71:50:a4:05:47:b0:0a:0a:43:21:00:09:
                    12:e2:83:e0:8c:6c:60:f1:68:8b:57:a1:01:4e:b3:
                    81:6e:40:8f:92:23:a4:c9:ec:e3:14:86:8a:c4:56:
                    3e:e5:64:b5:94:ec:ea:ab:d2:bc:39:77:2a:92:a1:
                    6e:4a:26:64:8f:a3:ea:12:56:03:04:ef:44:d8:f0:
                    5d:1d:22:95:8e:80:8a:86:13:75:b1:7c:a9:74:b6:
                    af:49:50:d7:bd:b9:3e:27:ab:cb:2f:fb:25:4c:54:
                    31:73:cf:be:69:63:7b:e9:ea:43:07:05:65:99:a0:
                    9f:cc:a3:47:f9:b6:ba:5e:51:80:e2:9b:4c:9d:e0:
                    9c:09:29:02:26:80:97:3d:90:26:bb:3b:7d:48:73:
                    61:08:12:09:37:3a:17:12:27:1c:c5:c5:09:05:72:
                    85:de:5a:70:78:23:df:e6:0e:39:ec:23:fb:da:7e:
                    47:e2:a6:cc:0e:de:5c:1d:09:0f:ad:08:5b:14:e1:
                    72:24:d3:15:43:35:a7:21:80:6d:43:a7:ed:ed:0e:
                    65:b3:fd:e1:51:2d:dc:31:33:a8:90:4f:47:f8:b6:
                    08:3c:a1:66:38:fc:d2:85:b3:e2:81:43:c1:5e:14:
                    8a:5d:1a:2b:3f:ca:14:7b:eb:0e:01:0f:00:27:6d:
                    ab:4a:bb:6a:a5:21:b9:e0:8f:3c:09:b2:4f:15:3e:
                    02:bd:09:e9:ba:47:d4:67:75:be:63:0c:6a:23:8b:
                    9a:e5:ba:a0:78:43:e4:5a:33:79:7c:d1:c1:b1:7e:
                    e0:d5:b4:f1:36:91:5f:fd:07:d8:81:53:d8:d7:aa:
                    c0:75:16:aa:f5:37:b5:cd:0c:03:1f:48:3d:fa:c3:
                    47:c1:54:f4:ea:91:5a:e0:41:89:67:2d:35:1a:0c:
                    21:fa:c5:bf:c9:2b:c5:02:64:58:ac:2f:c5:8a:2a:
                    eb:87:51:25:58:b4:7b:e1:63:3b:dc:d8:cb:45:9e:
                    8c:61:01
                Exponent: 65537 (0x10001)
        X509v3 extensions:
            X509v3 Subject Alternative Name:
                DNS:wax.com, DNS:*.wax.com, DNS:*-wax.com, DNS:*.gitlab-wax.com, DNS:wax.io, DNS:*.wax.io, DNS:*-wax.io, DNS:wax.org, DNS:*.wax.org, DNS:*-wax.org
    Signature Algorithm: sha256WithRSAEncryption
         3a:80:9e:87:c2:81:fa:84:e4:07:48:2d:98:13:c7:6b:5b:f6:
         43:b4:a6:dc:3c:7c:5d:81:42:5a:de:d6:32:7b:1c:f2:50:36:
         7a:47:d1:f3:3b:62:67:01:fa:c0:b7:1e:57:18:da:38:38:6d:
         92:f5:63:40:53:60:35:b8:92:b5:ff:f0:22:59:bc:5d:0e:a6:
         ac:f8:35:da:8a:a9:f4:97:bd:f5:5a:ab:e7:7d:5d:fd:c6:df:
         e0:a0:de:92:a6:86:8b:f7:cb:33:5b:4b:15:f4:8e:3f:43:06:
         9f:88:7b:47:fe:11:ef:b1:1a:4d:95:73:cc:fa:9c:f6:8c:f2:
         aa:65:97:7c:74:a8:fc:5f:84:e6:5e:5a:4c:30:f6:81:ca:15:
         3c:29:7d:e8:73:3e:cd:10:e3:a5:45:1c:59:54:dc:77:24:8e:
         01:f3:79:02:f5:84:88:4e:d2:74:d1:c6:f7:05:8f:1a:d1:46:
         25:6a:48:4e:e0:f8:42:43:25:f8:35:b8:80:69:f4:4c:05:b6:
         48:8f:61:32:61:15:03:96:f8:9d:74:5e:6a:14:71:3e:aa:19:
         fc:4a:57:4c:d9:6d:4c:96:cf:e4:3f:c9:cf:95:26:a7:1e:aa:
         57:40:da:2c:21:c9:36:1c:77:7c:27:c8:6c:24:db:33:79:b7:
         1a:88:d2:de:b8:bc:bd:79:9e:74:c9:d9:84:9b:ef:1b:e2:0b:
         9f:b7:bd:a1:24:f6:67:46:c3:68:66:82:10:39:a7:02:a6:e9:
         f3:d3:54:82:09:b3:43:da:25:dd:25:35:4e:8a:74:ce:4e:3a:
         61:a7:02:af:f6:04:cf:44:6b:db:4f:fc:c7:5d:e3:1f:d2:56:
         0c:25:e7:88:fc:22:de:7f:37:2f:29:ab:9a:e4:1a:a3:26:3c:
         e3:6e:ca:7b:37:13:53:48:2e:f9:6d:e6:13:80:42:9c:53:90:
         3c:6d:2f:ac:32:d3:30:e7:79:8a:da:b7:49:ba:dd:d6:5e:ed:
         96:25:5b:9b:10:02:ba:fd:32:e3:e2:fa:1f:38:99:43:22:b2:
         04:0e:f0:47:4b:f7:3b:7e:2e:d8:6f:38:8e:80:93:1b:86:cc:
         42:c5:5e:37:7f:d1:84:f4:9a:8b:d9:9c:33:8e:b8:53:18:57:
         70:94:21:37:0c:ed:b1:e3:e9:93:aa:ce:11:5f:8e:5f:e5:29:
         60:4e:2c:eb:28:2d:c3:48:e5:9a:38:0a:7e:24:e4:49:8b:15:
         54:19:c1:07:d4:0e:58:69:82:13:60:ea:27:2a:f6:ad:a7:e0:
         62:bd:de:04:89:97:33:65:ad:6b:c5:51:7d:0d:b7:bb:95:cb:
         fb:2e:73:9b:19:69:eb:b5
-----BEGIN CERTIFICATE-----
MIIGJjCCBA6gAwIBAgIBATANBgkqhkiG9w0BAQsFADCBmjELMAkGA1UEBhMCQ04x
EjAQBgNVBAgMCUd1YW5nRG9uZzERMA8GA1UEBwwIU2hlblpoZW4xFzAVBgNVBAoM
Dm15b3JnYW5pemF0aW9uMRAwDgYDVQQLDAdteWdyb3VwMRQwEgYDVQQDDAt3d3cu
d2F4LmNvbTEjMCEGCSqGSIb3DQEJARYUc2hhMzYyOTA1MzkyQDE2My5jb20wIBcN
MjIwODMxMDY0MjU2WhgPMjEyMjA4MDcwNjQyNTZaMIGUMQswCQYDVQQGEwJDTjES
MBAGA1UECAwJR3VhbmdEb25nMREwDwYDVQQHDAhTaGVuWmhlbjEMMAoGA1UECgwD
d2F4MRUwEwYDVQQLDAxpdERlcGFydG1lbnQxFDASBgNVBAMMC3d3dy53YXguY29t
MSMwIQYJKoZIhvcNAQkBFhRzaGEzNjI5MDUzOTJAMTYzLmNvbTCCAiIwDQYJKoZI
hvcNAQEBBQADggIPADCCAgoCggIBAM/28uL0Ll6X4fOtz/d9mUZNtCY12Y2449+r
rAaNkBy+VrTortoFk76WDX7C+iG+5iAo37TL8wRDWQDNvmYkyTiVC7vk3hB+idmf
cJCta0RpUfyNA2nRexp6qSdSRQRT62z1IsKmv86jMU/K4CvGSmNVMFDVL0iPpeaP
Q85cR4XJpHo470xW4Q0ScVCkBUewCgpDIQAJEuKD4IxsYPFoi1ehAU6zgW5Aj5Ij
pMns4xSGisRWPuVktZTs6qvSvDl3KpKhbkomZI+j6hJWAwTvRNjwXR0ilY6AioYT
dbF8qXS2r0lQ1725Pieryy/7JUxUMXPPvmlje+nqQwcFZZmgn8yjR/m2ul5RgOKb
TJ3gnAkpAiaAlz2QJrs7fUhzYQgSCTc6FxInHMXFCQVyhd5acHgj3+YOOewj+9p+
R+KmzA7eXB0JD60IWxThciTTFUM1pyGAbUOn7e0OZbP94VEt3DEzqJBPR/i2CDyh
Zjj80oWz4oFDwV4Uil0aKz/KFHvrDgEPACdtq0q7aqUhueCPPAmyTxU+Ar0J6bpH
1Gd1vmMMaiOLmuW6oHhD5FozeXzRwbF+4NW08TaRX/0H2IFT2NeqwHUWqvU3tc0M
Ax9IPfrDR8FU9OqRWuBBiWctNRoMIfrFv8krxQJkWKwvxYoq64dRJVi0e+FjO9zY
y0WejGEBAgMBAAGjeTB3MHUGA1UdEQRuMGyCB3dheC5jb22CCSoud2F4LmNvbYIJ
Ki13YXguY29tghAqLmdpdGxhYi13YXguY29tggZ3YXguaW+CCCoud2F4Lmlvgggq
LXdheC5pb4IHd2F4Lm9yZ4IJKi53YXgub3JnggkqLXdheC5vcmcwDQYJKoZIhvcN
AQELBQADggIBADqAnofCgfqE5AdILZgTx2tb9kO0ptw8fF2BQlre1jJ7HPJQNnpH
0fM7YmcB+sC3HlcY2jg4bZL1Y0BTYDW4krX/8CJZvF0Opqz4NdqKqfSXvfVaq+d9
Xf3G3+Cg3pKmhov3yzNbSxX0jj9DBp+Ie0f+Ee+xGk2Vc8z6nPaM8qpll3x0qPxf
hOZeWkww9oHKFTwpfehzPs0Q46VFHFlU3HckjgHzeQL1hIhO0nTRxvcFjxrRRiVq
SE7g+EJDJfg1uIBp9EwFtkiPYTJhFQOW+J10XmoUcT6qGfxKV0zZbUyWz+Q/yc+V
JqceqldA2iwhyTYcd3wnyGwk2zN5txqI0t64vL15nnTJ2YSb7xviC5+3vaEk9mdG
w2hmghA5pwKm6fPTVIIJs0PaJd0lNU6KdM5OOmGnAq/2BM9Ea9tP/Mdd4x/SVgwl
54j8It5/Ny8pq5rkGqMmPONuyns3E1NILvlt5hOAQpxTkDxtL6wy0zDneYrat0m6
3dZe7ZYlW5sQArr9MuPi+h84mUMisgQO8EdL9zt+LthvOI6AkxuGzELFXjd/0YT0
movZnDOOuFMYV3CUITcM7bHj6ZOqzhFfjl/lKWBOLOsoLcNI5Zo4Cn4k5EmLFVQZ
wQfUDlhpghNg6icq9q2n4GK93gSJlzNlrWvFUX0Nt7uVy/suc5sZaeu1
-----END CERTIFICATE-----
-----BEGIN CERTIFICATE-----
MIIGCzCCA/OgAwIBAgIJAJ0KzPY90yP+MA0GCSqGSIb3DQEBCwUAMIGaMQswCQYD
VQQGEwJDTjESMBAGA1UECAwJR3VhbmdEb25nMREwDwYDVQQHDAhTaGVuWmhlbjEX
MBUGA1UECgwObXlvcmdhbml6YXRpb24xEDAOBgNVBAsMB215Z3JvdXAxFDASBgNV
BAMMC3d3dy53YXguY29tMSMwIQYJKoZIhvcNAQkBFhRzaGEzNjI5MDUzOTJAMTYz
LmNvbTAgFw0yMjA4MzAwNzU3MTFaGA8yMTIyMDgwNjA3NTcxMVowgZoxCzAJBgNV
BAYTAkNOMRIwEAYDVQQIDAlHdWFuZ0RvbmcxETAPBgNVBAcMCFNoZW5aaGVuMRcw
FQYDVQQKDA5teW9yZ2FuaXphdGlvbjEQMA4GA1UECwwHbXlncm91cDEUMBIGA1UE
AwwLd3d3LndheC5jb20xIzAhBgkqhkiG9w0BCQEWFHNoYTM2MjkwNTM5MkAxNjMu
Y29tMIICIjANBgkqhkiG9w0BAQEFAAOCAg8AMIICCgKCAgEA5deB/HAJQadQI2jo
uqn2nXQSi4TU4CGoc9llJnD5o5Ybm1hWNbjUwbeu6Kl9jHvDOLdeUvsFop6Vd7P9
d2vB5Rn83ig2aizTRuPVblu5u91ReP4oCgF+Eo32Bs/Y9Edps+z7R13xk+WrBna/
at8vHH4JBxcjAjmrHeQ0riGBjRjO4UayYG1wKMiaibwAMYp94AN9xVJ8hKimC/mk
I4FT0cy0Cv8At+JQdX7dy4d2I6y4IQ6Tt9X42bxdFK0uFlg5QLozl3zO1i74IJ2+
M8+B6kOkwIInY3KXJT9qgVFWyxOWAIDIlAZ2qGyUX9SWyIBQ/P+waYCUiLecjvMD
x2HAoj/ijUnA6sXEUerr/BDoJvtqrtaj55Rzd1X65W3xDf5cl/UEprmkRbDYNmOG
Z/W5Vmk75AsKUBl2gQ4sEXeudAwi0ZHRxg6dvhqLfHHPhuP1+AfdzjR/ci+sjbHJ
F8YD9wDxpRH0LIhOURqcMV7nKgUeQuj0CZyRm89v85baDo/nVjtuIsFQ4FWbAvkl
nJP3dUBxnyDMTv7To6xSL+VirnHvv/O1isD3nUtUgrkGy0cssO/tbqh7qmsIG0eV
SugglMZVdJ/RABqshXLWvTyWIKjvWEcvTfmajX8cIKjIlUOc8DiXQArhu6EvhRcK
CnV5Yu+qSFQD316y0ef5jNN3AXkCAwEAAaNQME4wHQYDVR0OBBYEFImQpdPk56LZ
4Gjgxnd/J0KZWmTWMB8GA1UdIwQYMBaAFImQpdPk56LZ4Gjgxnd/J0KZWmTWMAwG
A1UdEwQFMAMBAf8wDQYJKoZIhvcNAQELBQADggIBAHtxkYat4kBuiBzPxKL+Hu0A
sYVDCgkaV8eu0YwnvRWmiI2YdpkIKdTzVcPJU+rnLzd7DD2XGKxMSOLS6cSRrKDx
6e2WoQuaLm4s9xOpgzCWH3f+PSAU/WZZ9QW9LJ8rWo6kFRBD5oCBczUX14B98BXn
m2YbyVEhIUY4Pd15enteuPBdJJPvhZ0Jfc8UssVEuk0sySgFt3aeE3cdGRKAKYYi
CjJd8kc5ZYGml5FpGVwymLmvMtMuAjZJbdErHqXZ4Fj2rX5uq0sLQQ/Rt3173mqZ
Y/Eg73mK+ySGlT7PI8Z0Xc1Ml08sANt52PPCctZenR1exnO1TsZqB5u3q4V4EiBl
JKnCVs9QuM7aZ6cDUwWr4rCm74ygPz8g4VXBCHOEELiVipAmFjmjjY/Ofa4tN/et
yNLDK7EKON52YBYw1VGt4I7zMzvBEvCSLKvzUz7ia8HU22oZU59BmvsClHoOqDyb
BCW5BmEwDf4lHoZZx1hN0a93RyXKK38TCrjd07LgUseu6ynMFJhWFr9QRvVlbYYq
L8KJo3gFUH1RMaNQPcq7eSbOsIbELbwwotJ5ISl9cr9tdjNKj5sZatuJ7/+6bg+i
BlOSmc0OOmgIqxJINKj9DG8K2dig9bcA1EJbdujQfDi5NXTy760wG6DN2jJtvLBe
f2jczD6tzJ1dRgKK3giT
-----END CERTIFICATE-----
